; ModuleID = '10/1946.c'
source_filename = "10/1946.c"
target datalayout = "e-m:e-p270:32:32-p271:32:32-p272:64:64-i64:64-f80:128-n8:16:32:64-S128"
target triple = "x86_64-pc-linux-gnu"

@.str = private unnamed_addr constant [3 x i8] c"%d\00", align 1
@.str.1 = private unnamed_addr constant [4 x i8] c"%d\0A\00", align 1

; Function Attrs: noinline nounwind uwtable
define dso_local i32 @main() #0 {
  %1 = alloca i32, align 4
  %2 = alloca i32, align 4
  %3 = alloca i32, align 4
  %4 = alloca i32, align 4
  %5 = alloca i32, align 4
  %6 = alloca [26 x i32], align 16
  %7 = alloca [26 x i32], align 16
  store i32 0, i32* %1, align 4
  %8 = call i32 (i8*, ...) @__isoc99_scanf(i8* getelementptr inbounds ([3 x i8], [3 x i8]* @.str, i64 0, i64 0), i32* %4)
  store i32 1, i32* %2, align 4
  br label %9

9:                                                ; preds = %21, %0
  %10 = load i32, i32* %2, align 4
  %11 = load i32, i32* %4, align 4
  %12 = icmp sle i32 %10, %11
  br i1 %12, label %13, label %24

13:                                               ; preds = %9
  %14 = load i32, i32* %2, align 4
  %15 = sext i32 %14 to i64
  %16 = getelementptr inbounds [26 x i32], [26 x i32]* %7, i64 0, i64 %15
  %17 = call i32 (i8*, ...) @__isoc99_scanf(i8* getelementptr inbounds ([3 x i8], [3 x i8]* @.str, i64 0, i64 0), i32* %16)
  %18 = load i32, i32* %2, align 4
  %19 = sext i32 %18 to i64
  %20 = getelementptr inbounds [26 x i32], [26 x i32]* %6, i64 0, i64 %19
  store i32 0, i32* %20, align 4
  br label %21

21:                                               ; preds = %13
  %22 = load i32, i32* %2, align 4
  %23 = add nsw i32 %22, 1
  store i32 %23, i32* %2, align 4
  br label %9

24:                                               ; preds = %9
  %25 = load i32, i32* %4, align 4
  %26 = sext i32 %25 to i64
  %27 = getelementptr inbounds [26 x i32], [26 x i32]* %6, i64 0, i64 %26
  store i32 1, i32* %27, align 4
  %28 = load i32, i32* %4, align 4
  %29 = sub nsw i32 %28, 1
  store i32 %29, i32* %2, align 4
  br label %30

30:                                               ; preds = %72, %24
  %31 = load i32, i32* %2, align 4
  %32 = icmp sge i32 %31, 1
  br i1 %32, label %33, label %75

33:                                               ; preds = %30
  store i32 0, i32* %5, align 4
  %34 = load i32, i32* %2, align 4
  %35 = add nsw i32 %34, 1
  store i32 %35, i32* %3, align 4
  br label %36

36:                                               ; preds = %63, %33
  %37 = load i32, i32* %3, align 4
  %38 = load i32, i32* %4, align 4
  %39 = icmp sle i32 %37, %38
  br i1 %39, label %40, label %66

40:                                               ; preds = %36
  %41 = load i32, i32* %3, align 4
  %42 = sext i32 %41 to i64
  %43 = getelementptr inbounds [26 x i32], [26 x i32]* %7, i64 0, i64 %42
  %44 = load i32, i32* %43, align 4
  %45 = load i32, i32* %2, align 4
  %46 = sext i32 %45 to i64
  %47 = getelementptr inbounds [26 x i32], [26 x i32]* %7, i64 0, i64 %46
  %48 = load i32, i32* %47, align 4
  %49 = icmp sle i32 %44, %48
  br i1 %49, label %50, label %62

50:                                               ; preds = %40
  %51 = load i32, i32* %3, align 4
  %52 = sext i32 %51 to i64
  %53 = getelementptr inbounds [26 x i32], [26 x i32]* %6, i64 0, i64 %52
  %54 = load i32, i32* %53, align 4
  %55 = load i32, i32* %5, align 4
  %56 = icmp sgt i32 %54, %55
  br i1 %56, label %57, label %62

57:                                               ; preds = %50
  %58 = load i32, i32* %3, align 4
  %59 = sext i32 %58 to i64
  %60 = getelementptr inbounds [26 x i32], [26 x i32]* %6, i64 0, i64 %59
  %61 = load i32, i32* %60, align 4
  store i32 %61, i32* %5, align 4
  br label %62

62:                                               ; preds = %57, %50, %40
  br label %63

63:                                               ; preds = %62
  %64 = load i32, i32* %3, align 4
  %65 = add nsw i32 %64, 1
  store i32 %65, i32* %3, align 4
  br label %36

66:                                               ; preds = %36
  %67 = load i32, i32* %5, align 4
  %68 = add nsw i32 %67, 1
  %69 = load i32, i32* %2, align 4
  %70 = sext i32 %69 to i64
  %71 = getelementptr inbounds [26 x i32], [26 x i32]* %6, i64 0, i64 %70
  store i32 %68, i32* %71, align 4
  br label %72

72:                                               ; preds = %66
  %73 = load i32, i32* %2, align 4
  %74 = add nsw i32 %73, -1
  store i32 %74, i32* %2, align 4
  br label %30

75:                                               ; preds = %30
  store i32 0, i32* %5, align 4
  store i32 1, i32* %2, align 4
  br label %76

76:                                               ; preds = %93, %75
  %77 = load i32, i32* %2, align 4
  %78 = load i32, i32* %4, align 4
  %79 = icmp sle i32 %77, %78
  br i1 %79, label %80, label %96

80:                                               ; preds = %76
  %81 = load i32, i32* %2, align 4
  %82 = sext i32 %81 to i64
  %83 = getelementptr inbounds [26 x i32], [26 x i32]* %6, i64 0, i64 %82
  %84 = load i32, i32* %83, align 4
  %85 = load i32, i32* %5, align 4
  %86 = icmp sgt i32 %84, %85
  br i1 %86, label %87, label %92

87:                                               ; preds = %80
  %88 = load i32, i32* %2, align 4
  %89 = sext i32 %88 to i64
  %90 = getelementptr inbounds [26 x i32], [26 x i32]* %6, i64 0, i64 %89
  %91 = load i32, i32* %90, align 4
  store i32 %91, i32* %5, align 4
  br label %92

92:                                               ; preds = %87, %80
  br label %93

93:                                               ; preds = %92
  %94 = load i32, i32* %2, align 4
  %95 = add nsw i32 %94, 1
  store i32 %95, i32* %2, align 4
  br label %76

96:                                               ; preds = %76
  %97 = load i32, i32* %5, align 4
  %98 = call i32 (i8*, ...) @printf(i8* getelementptr inbounds ([4 x i8], [4 x i8]* @.str.1, i64 0, i64 0), i32 %97)
  ret i32 0
}

declare dso_local i32 @__isoc99_scanf(i8*, ...) #1

declare dso_local i32 @printf(i8*, ...) #1


!llvm.module.flags = !{!0}
!llvm.ident = !{!1}

!0 = !{i32 1, !"wchar_size", i32 4}
!1 = !{!"clang version 10.0.0-4ubuntu1 "}
